target datalayout = "e-m:e-p270:32:32-p271:32:32-p272:64:64-i64:64-i128:128-f80:128-n8:16:32:64-S128"
target triple = "x86_64-pc-linux-gnu"

%struct.lua_TValue = type { %union.Value, [1 x i32], i32 }
%union.Value = type { ptr }

; Function Attrs: mustprogress nounwind uwtable
define internal noundef i32 @_ZL13luauF_extractP9lua_StateP10lua_TValueS2_iS2_i(ptr noundef %0, ptr noundef %1, ptr noundef %2, i32 noundef %3, ptr noundef %4, i32 noundef %5) #0 {
  %7 = alloca i32, align 4
  %8 = alloca ptr, align 8
  %9 = alloca ptr, align 8
  %10 = alloca ptr, align 8
  %11 = alloca i32, align 4
  %12 = alloca ptr, align 8
  %13 = alloca i32, align 4
  %14 = alloca double, align 8
  %15 = alloca double, align 8
  %16 = alloca i32, align 4
  %17 = alloca i32, align 4
  %18 = alloca i32, align 4
  %19 = alloca i32, align 4
  %20 = alloca ptr, align 8
  %21 = alloca i32, align 4
  %22 = alloca double, align 8
  %23 = alloca i32, align 4
  %24 = alloca i32, align 4
  %25 = alloca i32, align 4
  %26 = alloca ptr, align 8
  store ptr %0, ptr %8, align 8, !tbaa !4
  store ptr %1, ptr %9, align 8, !tbaa !9
  store ptr %2, ptr %10, align 8, !tbaa !9
  store i32 %3, ptr %11, align 4, !tbaa !11
  store ptr %4, ptr %12, align 8, !tbaa !9
  store i32 %5, ptr %13, align 4, !tbaa !11
  %27 = load i32, ptr %13, align 4, !tbaa !11
  %28 = icmp sge i32 %27, 2
  br i1 %28, label %29, label %122

29:                                               ; preds = %6
  %30 = load i32, ptr %11, align 4, !tbaa !11
  %31 = icmp sle i32 %30, 1
  br i1 %31, label %32, label %122

32:                                               ; preds = %29
  %33 = load ptr, ptr %10, align 8, !tbaa !9
  %34 = getelementptr inbounds nuw %struct.lua_TValue, ptr %33, i32 0, i32 2
  %35 = load i32, ptr %34, align 4, !tbaa !13
  %36 = icmp eq i32 %35, 3
  br i1 %36, label %37, label %122

37:                                               ; preds = %32
  %38 = load ptr, ptr %12, align 8, !tbaa !9
  %39 = getelementptr inbounds nuw %struct.lua_TValue, ptr %38, i32 0, i32 2
  %40 = load i32, ptr %39, align 4, !tbaa !13
  %41 = icmp eq i32 %40, 3
  br i1 %41, label %42, label %122

42:                                               ; preds = %37
  call void @llvm.lifetime.start.p0(i64 8, ptr %14) #17
  %43 = load ptr, ptr %10, align 8, !tbaa !9
  %44 = getelementptr inbounds nuw %struct.lua_TValue, ptr %43, i32 0, i32 0
  %45 = load double, ptr %44, align 8, !tbaa !15
  store double %45, ptr %14, align 8, !tbaa !16
  call void @llvm.lifetime.start.p0(i64 8, ptr %15) #17
  %46 = load ptr, ptr %12, align 8, !tbaa !9
  %47 = getelementptr inbounds nuw %struct.lua_TValue, ptr %46, i32 0, i32 0
  %48 = load double, ptr %47, align 8, !tbaa !15
  store double %48, ptr %15, align 8, !tbaa !16
  call void @llvm.lifetime.start.p0(i64 4, ptr %16) #17
  %49 = load double, ptr %14, align 8, !tbaa !16
  %50 = fptosi double %49 to i64
  %51 = trunc i64 %50 to i32
  store i32 %51, ptr %16, align 4, !tbaa !11
  call void @llvm.lifetime.start.p0(i64 4, ptr %17) #17
  %52 = load double, ptr %15, align 8, !tbaa !16
  %53 = fptosi double %52 to i32
  store i32 %53, ptr %17, align 4, !tbaa !11
  %54 = load i32, ptr %13, align 4, !tbaa !11
  %55 = icmp eq i32 %54, 2
  br i1 %55, label %56, label %73

56:                                               ; preds = %42
  %57 = load i32, ptr %17, align 4, !tbaa !11
  %58 = icmp ult i32 %57, 32
  br i1 %58, label %59, label %72

59:                                               ; preds = %56
  call void @llvm.lifetime.start.p0(i64 4, ptr %18) #17
  store i32 1, ptr %18, align 4, !tbaa !11
  call void @llvm.lifetime.start.p0(i64 4, ptr %19) #17
  %60 = load i32, ptr %16, align 4, !tbaa !11
  %61 = load i32, ptr %17, align 4, !tbaa !11
  %62 = lshr i32 %60, %61
  %63 = load i32, ptr %18, align 4, !tbaa !11
  %64 = and i32 %62, %63
  store i32 %64, ptr %19, align 4, !tbaa !11
  call void @llvm.lifetime.start.p0(i64 8, ptr %20) #17
  %65 = load ptr, ptr %9, align 8, !tbaa !9
  store ptr %65, ptr %20, align 8, !tbaa !9
  %66 = load i32, ptr %19, align 4, !tbaa !11
  %67 = uitofp i32 %66 to double
  %68 = load ptr, ptr %20, align 8, !tbaa !9
  %69 = getelementptr inbounds nuw %struct.lua_TValue, ptr %68, i32 0, i32 0
  store double %67, ptr %69, align 8, !tbaa !15
  %70 = load ptr, ptr %20, align 8, !tbaa !9
  %71 = getelementptr inbounds nuw %struct.lua_TValue, ptr %70, i32 0, i32 2
  store i32 3, ptr %71, align 4, !tbaa !13
  call void @llvm.lifetime.end.p0(i64 8, ptr %20) #17
  store i32 1, ptr %7, align 4
  store i32 1, ptr %21, align 4
  call void @llvm.lifetime.end.p0(i64 4, ptr %19) #17
  call void @llvm.lifetime.end.p0(i64 4, ptr %18) #17
  br label %119

72:                                               ; preds = %56
  br label %118

73:                                               ; preds = %42
  %74 = load ptr, ptr %12, align 8, !tbaa !9
  %75 = getelementptr inbounds %struct.lua_TValue, ptr %74, i64 1
  %76 = getelementptr inbounds nuw %struct.lua_TValue, ptr %75, i32 0, i32 2
  %77 = load i32, ptr %76, align 4, !tbaa !13
  %78 = icmp eq i32 %77, 3
  br i1 %78, label %79, label %117

79:                                               ; preds = %73
  call void @llvm.lifetime.start.p0(i64 8, ptr %22) #17
  %80 = load ptr, ptr %12, align 8, !tbaa !9
  %81 = getelementptr inbounds %struct.lua_TValue, ptr %80, i64 1
  %82 = getelementptr inbounds nuw %struct.lua_TValue, ptr %81, i32 0, i32 0
  %83 = load double, ptr %82, align 8, !tbaa !15
  store double %83, ptr %22, align 8, !tbaa !16
  call void @llvm.lifetime.start.p0(i64 4, ptr %23) #17
  %84 = load double, ptr %22, align 8, !tbaa !16
  %85 = fptosi double %84 to i32
  store i32 %85, ptr %23, align 4, !tbaa !11
  %86 = load i32, ptr %17, align 4, !tbaa !11
  %87 = icmp sge i32 %86, 0
  br i1 %87, label %88, label %113

88:                                               ; preds = %79
  %89 = load i32, ptr %23, align 4, !tbaa !11
  %90 = icmp sgt i32 %89, 0
  br i1 %90, label %91, label %113

91:                                               ; preds = %88
  %92 = load i32, ptr %17, align 4, !tbaa !11
  %93 = load i32, ptr %23, align 4, !tbaa !11
  %94 = add nsw i32 %92, %93
  %95 = icmp sle i32 %94, 32
  br i1 %95, label %96, label %113

96:                                               ; preds = %91
  call void @llvm.lifetime.start.p0(i64 4, ptr %24) #17
  %97 = load i32, ptr %23, align 4, !tbaa !11
  %98 = sub nsw i32 %97, 1
  %99 = shl i32 -2, %98
  %100 = xor i32 %99, -1
  store i32 %100, ptr %24, align 4, !tbaa !11
  call void @llvm.lifetime.start.p0(i64 4, ptr %25) #17
  %101 = load i32, ptr %16, align 4, !tbaa !11
  %102 = load i32, ptr %17, align 4, !tbaa !11
  %103 = lshr i32 %101, %102
  %104 = load i32, ptr %24, align 4, !tbaa !11
  %105 = and i32 %103, %104
  store i32 %105, ptr %25, align 4, !tbaa !11
  call void @llvm.lifetime.start.p0(i64 8, ptr %26) #17
  %106 = load ptr, ptr %9, align 8, !tbaa !9
  store ptr %106, ptr %26, align 8, !tbaa !9
  %107 = load i32, ptr %25, align 4, !tbaa !11
  %108 = uitofp i32 %107 to double
  %109 = load ptr, ptr %26, align 8, !tbaa !9
  %110 = getelementptr inbounds nuw %struct.lua_TValue, ptr %109, i32 0, i32 0
  store double %108, ptr %110, align 8, !tbaa !15
  %111 = load ptr, ptr %26, align 8, !tbaa !9
  %112 = getelementptr inbounds nuw %struct.lua_TValue, ptr %111, i32 0, i32 2
  store i32 3, ptr %112, align 4, !tbaa !13
  call void @llvm.lifetime.end.p0(i64 8, ptr %26) #17
  store i32 1, ptr %7, align 4
  store i32 1, ptr %21, align 4
  call void @llvm.lifetime.end.p0(i64 4, ptr %25) #17
  call void @llvm.lifetime.end.p0(i64 4, ptr %24) #17
  br label %114

113:                                              ; preds = %91, %88, %79
  store i32 0, ptr %21, align 4
  br label %114

114:                                              ; preds = %113, %96
  call void @llvm.lifetime.end.p0(i64 4, ptr %23) #17
  call void @llvm.lifetime.end.p0(i64 8, ptr %22) #17
  %115 = load i32, ptr %21, align 4
  switch i32 %115, label %119 [
    i32 0, label %116
  ]

116:                                              ; preds = %114
  br label %117

117:                                              ; preds = %116, %73
  br label %118

118:                                              ; preds = %117, %72
  store i32 0, ptr %21, align 4
  br label %119

119:                                              ; preds = %118, %114, %59
  call void @llvm.lifetime.end.p0(i64 4, ptr %17) #17
  call void @llvm.lifetime.end.p0(i64 4, ptr %16) #17
  call void @llvm.lifetime.end.p0(i64 8, ptr %15) #17
  call void @llvm.lifetime.end.p0(i64 8, ptr %14) #17
  %120 = load i32, ptr %21, align 4
  switch i32 %120, label %125 [
    i32 0, label %121
    i32 1, label %123
  ]

121:                                              ; preds = %119
  br label %122

122:                                              ; preds = %121, %37, %32, %29, %6
  store i32 -1, ptr %7, align 4
  br label %123

123:                                              ; preds = %122, %119
  %124 = load i32, ptr %7, align 4
  ret i32 %124

125:                                              ; preds = %119
  unreachable
}