; Function Attrs: mustprogress nofree norecurse nosync nounwind willreturn memory(argmem: readwrite) uwtable
define internal noundef range(i32 -1, 2) i32 @_ZL13luauF_extractP9lua_StateP10lua_TValueS2_iS2_i(ptr readnone captures(none) %0, ptr noundef writeonly captures(none) %1, ptr noundef readonly captures(none) %2, i32 noundef %3, ptr noundef readonly captures(none) %4, i32 noundef %5) #1 {
  %7 = icmp sgt i32 %5, 1
  %8 = icmp slt i32 %3, 2
  %or.cond = and i1 %8, %7
  br i1 %or.cond, label %9, label %.thread

9:                                                ; preds = %6
  %10 = getelementptr inbounds nuw i8, ptr %2, i64 12
  %11 = load i32, ptr %10, align 4, !tbaa !4
  %12 = icmp eq i32 %11, 3
  br i1 %12, label %13, label %.thread

13:                                               ; preds = %9
  %14 = getelementptr inbounds nuw i8, ptr %4, i64 12
  %15 = load i32, ptr %14, align 4, !tbaa !4
  %16 = icmp eq i32 %15, 3
  br i1 %16, label %17, label %.thread

17:                                               ; preds = %13
  %18 = load double, ptr %2, align 8, !tbaa !9
  %19 = load double, ptr %4, align 8, !tbaa !9
  %20 = fptosi double %18 to i64
  %21 = trunc i64 %20 to i32
  %22 = fptosi double %19 to i32
  %23 = icmp eq i32 %5, 2
  br i1 %23, label %24, label %26

24:                                               ; preds = %17
  %25 = icmp ult i32 %22, 32
  br i1 %25, label %.thread.sink.split, label %.thread

26:                                               ; preds = %17
  %27 = getelementptr inbounds nuw i8, ptr %4, i64 28
  %28 = load i32, ptr %27, align 4, !tbaa !4
  %29 = icmp eq i32 %28, 3
  br i1 %29, label %30, label %.thread

30:                                               ; preds = %26
  %31 = getelementptr inbounds nuw i8, ptr %4, i64 16
  %32 = load double, ptr %31, align 8, !tbaa !9
  %33 = fptosi double %32 to i32
  %34 = icmp sgt i32 %22, -1
  %35 = icmp sgt i32 %33, 0
  %or.cond3 = select i1 %34, i1 %35, i1 false
  %36 = add nuw nsw i32 %33, %22
  %37 = icmp slt i32 %36, 33
  %or.cond42 = select i1 %or.cond3, i1 %37, i1 false
  br i1 %or.cond42, label %.critedge, label %.thread

.critedge:                                        ; preds = %30
  %38 = add nsw i32 %33, -1
  %39 = shl i32 -2, %38
  %40 = xor i32 %39, -1
  br label %.thread.sink.split

.thread.sink.split:                               ; preds = %24, %.critedge
  %.sink46 = phi i32 [ %40, %.critedge ], [ 1, %24 ]
  %41 = lshr i32 %21, %22
  %42 = and i32 %41, %.sink46
  %43 = uitofp i32 %42 to double
  store double %43, ptr %1, align 8, !tbaa !9
  %44 = getelementptr inbounds nuw i8, ptr %1, i64 12
  store i32 3, ptr %44, align 4, !tbaa !4
  br label %.thread

.thread:                                          ; preds = %.thread.sink.split, %24, %26, %30, %6, %9, %13
  %.3 = phi i32 [ -1, %13 ], [ -1, %9 ], [ -1, %6 ], [ -1, %30 ], [ -1, %26 ], [ -1, %24 ], [ 1, %.thread.sink.split ]
  ret i32 %.3
}